; Function Attrs: mustprogress uwtable
define hidden void @_ZN15model_evaluatorC2ER10model_coreRK10params_ref(ptr nocapture noundef nonnull writeonly align 8 dereferenceable(8) %this, ptr noundef nonnull align 8 dereferenceable(96) %md, ptr noundef nonnull align 8 dereferenceable(8) %p) unnamed_addr #3 align 2 personality ptr @__gxx_personality_v0 {
entry:
  %call = tail call noalias noundef ptr @_ZN6memory8allocateEm(i64 noundef 2336)
  store ptr getelementptr inbounds ({ [4 x ptr] }, ptr @_ZTVN15model_evaluator3impE, i64 0, i32 0, i64 2), ptr %call, align 8
  %m.i.i = getelementptr inbounds i8, ptr %md, i64 8
  %0 = load ptr, ptr %m.i.i, align 8
  %m_cfg.i = getelementptr inbounds i8, ptr %call, i64 536
  tail call void @_ZN12rewriter_tplIN3mev13evaluator_cfgEEC2ER11ast_managerbRS1_(ptr noundef nonnull align 8 dereferenceable(536) %call, ptr noundef nonnull align 8 dereferenceable(976) %0, i1 noundef zeroext false, ptr noundef nonnull align 8 dereferenceable(1800) %m_cfg.i)
  store ptr getelementptr inbounds ({ [4 x ptr] }, ptr @_ZTVN15model_evaluator3impE, i64 0, i32 0, i64 2), ptr %call, align 8
  %1 = load ptr, ptr %m.i.i, align 8
  invoke void @_ZN3mev13evaluator_cfgC2ER11ast_managerR10model_coreRK10params_ref(ptr noundef nonnull align 8 dereferenceable(1800) %m_cfg.i, ptr noundef nonnull align 8 dereferenceable(976) %1, ptr noundef nonnull align 8 dereferenceable(96) %md, ptr noundef nonnull align 8 dereferenceable(8) %p)
          to label %_ZN15model_evaluator3impC2ER10model_coreRK10params_ref.exit unwind label %lpad.i

lpad.i:                                           ; preds = %entry
  %2 = landingpad { ptr, i32 }
          cleanup
  tail call void @_ZN12rewriter_tplIN3mev13evaluator_cfgEED2Ev(ptr noundef nonnull align 8 dereferenceable(536) %call) #18
  resume { ptr, i32 } %2

_ZN15model_evaluator3impC2ER10model_coreRK10params_ref.exit: ; preds = %entry
  store ptr %call, ptr %this, align 8
  ret void
}